target datalayout = "e-m:e-p270:32:32-p271:32:32-p272:64:64-i64:64-i128:128-f80:128-n8:16:32:64-S128"
target triple = "x86_64-pc-linux-gnu"

%"class.cv::Mat" = type { i32, i32, i32, i32, ptr, ptr, ptr, ptr, ptr, ptr, %"struct.cv::MatSize", %"struct.cv::MatStep" }
%"struct.cv::MatSize" = type { ptr }
%"struct.cv::MatStep" = type { ptr, [2 x i64] }
%"struct.cv::ximgproc::EdgeDrawing::Params" = type { i8, i32, i32, i32, i32, i32, float, i8, i8, i32, double, double, double }
%"class.cv::ximgproc::EdgeDrawing" = type { %"class.cv::Algorithm", %"struct.cv::ximgproc::EdgeDrawing::Params" }
%"class.cv::Algorithm" = type { ptr }
%"class.cv::ximgproc::EdgeDrawingImpl" = type { %"class.cv::ximgproc::EdgeDrawing", i32, i32, ptr, %"class.std::vector", %"class.std::vector.12", %"class.cv::Mat", ptr, ptr, i32, %"class.cv::Mat", double, ptr, ptr, i32, i32, %"class.std::vector.17", %"class.std::vector.17", %"class.cv::Mat", %"class.cv::Mat", %"class.cv::Mat", ptr, ptr, i32, i32, i32, %"class.std::vector.22", i32, i32, double, double, double, double, ptr, i32, i32, %"class.std::vector.27", %"class.std::vector.32", ptr, ptr, ptr, i32, i32, i32, ptr, ptr, ptr, ptr, ptr, ptr, ptr }
%"class.std::vector" = type { %"struct.std::_Vector_base" }
%"struct.std::_Vector_base" = type { %"struct.std::_Vector_base<std::vector<cv::Point_<int>>, std::allocator<std::vector<cv::Point_<int>>>>::_Vector_impl" }
%"struct.std::_Vector_base<std::vector<cv::Point_<int>>, std::allocator<std::vector<cv::Point_<int>>>>::_Vector_impl" = type { %"struct.std::_Vector_base<std::vector<cv::Point_<int>>, std::allocator<std::vector<cv::Point_<int>>>>::_Vector_impl_data" }
%"struct.std::_Vector_base<std::vector<cv::Point_<int>>, std::allocator<std::vector<cv::Point_<int>>>>::_Vector_impl_data" = type { ptr, ptr, ptr }
%"class.std::vector.12" = type { %"struct.std::_Vector_base.13" }
%"struct.std::_Vector_base.13" = type { %"struct.std::_Vector_base<int, std::allocator<int>>::_Vector_impl" }
%"struct.std::_Vector_base<int, std::allocator<int>>::_Vector_impl" = type { %"struct.std::_Vector_base<int, std::allocator<int>>::_Vector_impl_data" }
%"struct.std::_Vector_base<int, std::allocator<int>>::_Vector_impl_data" = type { ptr, ptr, ptr }
%"class.std::vector.17" = type { %"struct.std::_Vector_base.18" }
%"struct.std::_Vector_base.18" = type { %"struct.std::_Vector_base<cv::Point_<int>, std::allocator<cv::Point_<int>>>::_Vector_impl" }
%"struct.std::_Vector_base<cv::Point_<int>, std::allocator<cv::Point_<int>>>::_Vector_impl" = type { %"struct.std::_Vector_base<cv::Point_<int>, std::allocator<cv::Point_<int>>>::_Vector_impl_data" }
%"struct.std::_Vector_base<cv::Point_<int>, std::allocator<cv::Point_<int>>>::_Vector_impl_data" = type { ptr, ptr, ptr }
%"class.std::vector.22" = type { %"struct.std::_Vector_base.23" }
%"struct.std::_Vector_base.23" = type { %"struct.std::_Vector_base<EDLineSegment, std::allocator<EDLineSegment>>::_Vector_impl" }
%"struct.std::_Vector_base<EDLineSegment, std::allocator<EDLineSegment>>::_Vector_impl" = type { %"struct.std::_Vector_base<EDLineSegment, std::allocator<EDLineSegment>>::_Vector_impl_data" }
%"struct.std::_Vector_base<EDLineSegment, std::allocator<EDLineSegment>>::_Vector_impl_data" = type { ptr, ptr, ptr }
%"class.std::vector.27" = type { %"struct.std::_Vector_base.28" }
%"struct.std::_Vector_base.28" = type { %"struct.std::_Vector_base<mCircle, std::allocator<mCircle>>::_Vector_impl" }
%"struct.std::_Vector_base<mCircle, std::allocator<mCircle>>::_Vector_impl" = type { %"struct.std::_Vector_base<mCircle, std::allocator<mCircle>>::_Vector_impl_data" }
%"struct.std::_Vector_base<mCircle, std::allocator<mCircle>>::_Vector_impl_data" = type { ptr, ptr, ptr }
%"class.std::vector.32" = type { %"struct.std::_Vector_base.33" }
%"struct.std::_Vector_base.33" = type { %"struct.std::_Vector_base<mEllipse, std::allocator<mEllipse>>::_Vector_impl" }
%"struct.std::_Vector_base<mEllipse, std::allocator<mEllipse>>::_Vector_impl" = type { %"struct.std::_Vector_base<mEllipse, std::allocator<mEllipse>>::_Vector_impl_data" }
%"struct.std::_Vector_base<mEllipse, std::allocator<mEllipse>>::_Vector_impl_data" = type { ptr, ptr, ptr }

; Function Attrs: mustprogress uwtable
define hidden noundef ptr @_ZN2cv8ximgproc15EdgeDrawingImpl23sortAnchorsByGradValue1Ev(ptr noundef nonnull align 8 dereferenceable(976) %0) #4 align 2 {
  %2 = alloca ptr, align 8
  %3 = alloca i32, align 4
  %4 = alloca ptr, align 8
  %5 = alloca i32, align 4
  %6 = alloca i32, align 4
  %7 = alloca i32, align 4
  %8 = alloca i32, align 4
  %9 = alloca i32, align 4
  %10 = alloca i32, align 4
  %11 = alloca ptr, align 8
  %12 = alloca i32, align 4
  %13 = alloca i32, align 4
  %14 = alloca i32, align 4
  %15 = alloca i32, align 4
  store ptr %0, ptr %2, align 8, !tbaa !134
  %16 = load ptr, ptr %2, align 8
  call void @llvm.lifetime.start.p0(i64 4, ptr %3) #3
  store i32 32768, ptr %3, align 4, !tbaa !8
  call void @llvm.lifetime.start.p0(i64 8, ptr %4) #3
  %17 = load i32, ptr %3, align 4, !tbaa !8
  %18 = sext i32 %17 to i64
  %19 = call { i64, i1 } @llvm.umul.with.overflow.i64(i64 %18, i64 4)
  %20 = extractvalue { i64, i1 } %19, 1
  %21 = extractvalue { i64, i1 } %19, 0
  %22 = select i1 %20, i64 -1, i64 %21
  %23 = call noalias noundef nonnull ptr @_Znam(i64 noundef %22) #23
  store ptr %23, ptr %4, align 8, !tbaa !131
  %24 = load ptr, ptr %4, align 8, !tbaa !131
  %25 = load i32, ptr %3, align 4, !tbaa !8
  %26 = sext i32 %25 to i64
  %27 = mul i64 4, %26
  call void @llvm.memset.p0.i64(ptr align 4 %24, i8 0, i64 %27, i1 false)
  call void @llvm.lifetime.start.p0(i64 4, ptr %5) #3
  store i32 1, ptr %5, align 4, !tbaa !8
  br label %28

28:                                               ; preds = %81, %1
  %29 = load i32, ptr %5, align 4, !tbaa !8
  %30 = getelementptr inbounds nuw %"class.cv::ximgproc::EdgeDrawingImpl", ptr %16, i32 0, i32 2
  %31 = load i32, ptr %30, align 4, !tbaa !211
  %32 = sub nsw i32 %31, 1
  %33 = icmp slt i32 %29, %32
  br i1 %33, label %35, label %34

34:                                               ; preds = %28
  store i32 2, ptr %6, align 4
  call void @llvm.lifetime.end.p0(i64 4, ptr %5) #3
  br label %84

35:                                               ; preds = %28
  call void @llvm.lifetime.start.p0(i64 4, ptr %7) #3
  store i32 1, ptr %7, align 4, !tbaa !8
  br label %36

36:                                               ; preds = %77, %35
  %37 = load i32, ptr %7, align 4, !tbaa !8
  %38 = getelementptr inbounds nuw %"class.cv::ximgproc::EdgeDrawingImpl", ptr %16, i32 0, i32 1
  %39 = load i32, ptr %38, align 8, !tbaa !213
  %40 = sub nsw i32 %39, 1
  %41 = icmp slt i32 %37, %40
  br i1 %41, label %43, label %42

42:                                               ; preds = %36
  store i32 5, ptr %6, align 4
  call void @llvm.lifetime.end.p0(i64 4, ptr %7) #3
  br label %80

43:                                               ; preds = %36
  %44 = getelementptr inbounds nuw %"class.cv::ximgproc::EdgeDrawingImpl", ptr %16, i32 0, i32 7
  %45 = load ptr, ptr %44, align 8, !tbaa !220
  %46 = load i32, ptr %5, align 4, !tbaa !8
  %47 = getelementptr inbounds nuw %"class.cv::ximgproc::EdgeDrawingImpl", ptr %16, i32 0, i32 1
  %48 = load i32, ptr %47, align 8, !tbaa !213
  %49 = mul nsw i32 %46, %48
  %50 = load i32, ptr %7, align 4, !tbaa !8
  %51 = add nsw i32 %49, %50
  %52 = sext i32 %51 to i64
  %53 = getelementptr inbounds i8, ptr %45, i64 %52
  %54 = load i8, ptr %53, align 1, !tbaa !62
  %55 = zext i8 %54 to i32
  %56 = icmp ne i32 %55, 254
  br i1 %56, label %57, label %58

57:                                               ; preds = %43
  br label %77

58:                                               ; preds = %43
  call void @llvm.lifetime.start.p0(i64 4, ptr %8) #3
  %59 = getelementptr inbounds nuw %"class.cv::ximgproc::EdgeDrawingImpl", ptr %16, i32 0, i32 22
  %60 = load ptr, ptr %59, align 8, !tbaa !218
  %61 = load i32, ptr %5, align 4, !tbaa !8
  %62 = getelementptr inbounds nuw %"class.cv::ximgproc::EdgeDrawingImpl", ptr %16, i32 0, i32 1
  %63 = load i32, ptr %62, align 8, !tbaa !213
  %64 = mul nsw i32 %61, %63
  %65 = load i32, ptr %7, align 4, !tbaa !8
  %66 = add nsw i32 %64, %65
  %67 = sext i32 %66 to i64
  %68 = getelementptr inbounds i16, ptr %60, i64 %67
  %69 = load i16, ptr %68, align 2, !tbaa !72
  %70 = zext i16 %69 to i32
  store i32 %70, ptr %8, align 4, !tbaa !8
  %71 = load ptr, ptr %4, align 8, !tbaa !131
  %72 = load i32, ptr %8, align 4, !tbaa !8
  %73 = sext i32 %72 to i64
  %74 = getelementptr inbounds i32, ptr %71, i64 %73
  %75 = load i32, ptr %74, align 4, !tbaa !8
  %76 = add nsw i32 %75, 1
  store i32 %76, ptr %74, align 4, !tbaa !8
  call void @llvm.lifetime.end.p0(i64 4, ptr %8) #3
  br label %77

77:                                               ; preds = %58, %57
  %78 = load i32, ptr %7, align 4, !tbaa !8
  %79 = add nsw i32 %78, 1
  store i32 %79, ptr %7, align 4, !tbaa !8
  br label %36, !llvm.loop !295

80:                                               ; preds = %42
  br label %81

81:                                               ; preds = %80
  %82 = load i32, ptr %5, align 4, !tbaa !8
  %83 = add nsw i32 %82, 1
  store i32 %83, ptr %5, align 4, !tbaa !8
  br label %28, !llvm.loop !296

84:                                               ; preds = %34
  call void @llvm.lifetime.start.p0(i64 4, ptr %9) #3
  store i32 1, ptr %9, align 4, !tbaa !8
  br label %85

85:                                               ; preds = %103, %84
  %86 = load i32, ptr %9, align 4, !tbaa !8
  %87 = load i32, ptr %3, align 4, !tbaa !8
  %88 = icmp slt i32 %86, %87
  br i1 %88, label %90, label %89

89:                                               ; preds = %85
  store i32 8, ptr %6, align 4
  call void @llvm.lifetime.end.p0(i64 4, ptr %9) #3
  br label %106

90:                                               ; preds = %85
  %91 = load ptr, ptr %4, align 8, !tbaa !131
  %92 = load i32, ptr %9, align 4, !tbaa !8
  %93 = sub nsw i32 %92, 1
  %94 = sext i32 %93 to i64
  %95 = getelementptr inbounds i32, ptr %91, i64 %94
  %96 = load i32, ptr %95, align 4, !tbaa !8
  %97 = load ptr, ptr %4, align 8, !tbaa !131
  %98 = load i32, ptr %9, align 4, !tbaa !8
  %99 = sext i32 %98 to i64
  %100 = getelementptr inbounds i32, ptr %97, i64 %99
  %101 = load i32, ptr %100, align 4, !tbaa !8
  %102 = add nsw i32 %101, %96
  store i32 %102, ptr %100, align 4, !tbaa !8
  br label %103

103:                                              ; preds = %90
  %104 = load i32, ptr %9, align 4, !tbaa !8
  %105 = add nsw i32 %104, 1
  store i32 %105, ptr %9, align 4, !tbaa !8
  br label %85, !llvm.loop !297

106:                                              ; preds = %89
  call void @llvm.lifetime.start.p0(i64 4, ptr %10) #3
  %107 = load ptr, ptr %4, align 8, !tbaa !131
  %108 = load i32, ptr %3, align 4, !tbaa !8
  %109 = sub nsw i32 %108, 1
  %110 = sext i32 %109 to i64
  %111 = getelementptr inbounds i32, ptr %107, i64 %110
  %112 = load i32, ptr %111, align 4, !tbaa !8
  store i32 %112, ptr %10, align 4, !tbaa !8
  call void @llvm.lifetime.start.p0(i64 8, ptr %11) #3
  %113 = load i32, ptr %10, align 4, !tbaa !8
  %114 = sext i32 %113 to i64
  %115 = call { i64, i1 } @llvm.umul.with.overflow.i64(i64 %114, i64 4)
  %116 = extractvalue { i64, i1 } %115, 1
  %117 = extractvalue { i64, i1 } %115, 0
  %118 = select i1 %116, i64 -1, i64 %117
  %119 = call noalias noundef nonnull ptr @_Znam(i64 noundef %118) #23
  store ptr %119, ptr %11, align 8, !tbaa !131
  call void @llvm.lifetime.start.p0(i64 4, ptr %12) #3
  store i32 1, ptr %12, align 4, !tbaa !8
  br label %120

120:                                              ; preds = %183, %106
  %121 = load i32, ptr %12, align 4, !tbaa !8
  %122 = getelementptr inbounds nuw %"class.cv::ximgproc::EdgeDrawingImpl", ptr %16, i32 0, i32 2
  %123 = load i32, ptr %122, align 4, !tbaa !211
  %124 = sub nsw i32 %123, 1
  %125 = icmp slt i32 %121, %124
  br i1 %125, label %127, label %126

126:                                              ; preds = %120
  store i32 11, ptr %6, align 4
  call void @llvm.lifetime.end.p0(i64 4, ptr %12) #3
  br label %186

127:                                              ; preds = %120
  call void @llvm.lifetime.start.p0(i64 4, ptr %13) #3
  store i32 1, ptr %13, align 4, !tbaa !8
  br label %128

128:                                              ; preds = %179, %127
  %129 = load i32, ptr %13, align 4, !tbaa !8
  %130 = getelementptr inbounds nuw %"class.cv::ximgproc::EdgeDrawingImpl", ptr %16, i32 0, i32 1
  %131 = load i32, ptr %130, align 8, !tbaa !213
  %132 = sub nsw i32 %131, 1
  %133 = icmp slt i32 %129, %132
  br i1 %133, label %135, label %134

134:                                              ; preds = %128
  store i32 14, ptr %6, align 4
  call void @llvm.lifetime.end.p0(i64 4, ptr %13) #3
  br label %182

135:                                              ; preds = %128
  %136 = getelementptr inbounds nuw %"class.cv::ximgproc::EdgeDrawingImpl", ptr %16, i32 0, i32 7
  %137 = load ptr, ptr %136, align 8, !tbaa !220
  %138 = load i32, ptr %12, align 4, !tbaa !8
  %139 = getelementptr inbounds nuw %"class.cv::ximgproc::EdgeDrawingImpl", ptr %16, i32 0, i32 1
  %140 = load i32, ptr %139, align 8, !tbaa !213
  %141 = mul nsw i32 %138, %140
  %142 = load i32, ptr %13, align 4, !tbaa !8
  %143 = add nsw i32 %141, %142
  %144 = sext i32 %143 to i64
  %145 = getelementptr inbounds i8, ptr %137, i64 %144
  %146 = load i8, ptr %145, align 1, !tbaa !62
  %147 = zext i8 %146 to i32
  %148 = icmp ne i32 %147, 254
  br i1 %148, label %149, label %150

149:                                              ; preds = %135
  br label %179

150:                                              ; preds = %135
  call void @llvm.lifetime.start.p0(i64 4, ptr %14) #3
  %151 = getelementptr inbounds nuw %"class.cv::ximgproc::EdgeDrawingImpl", ptr %16, i32 0, i32 22
  %152 = load ptr, ptr %151, align 8, !tbaa !218
  %153 = load i32, ptr %12, align 4, !tbaa !8
  %154 = getelementptr inbounds nuw %"class.cv::ximgproc::EdgeDrawingImpl", ptr %16, i32 0, i32 1
  %155 = load i32, ptr %154, align 8, !tbaa !213
  %156 = mul nsw i32 %153, %155
  %157 = load i32, ptr %13, align 4, !tbaa !8
  %158 = add nsw i32 %156, %157
  %159 = sext i32 %158 to i64
  %160 = getelementptr inbounds i16, ptr %152, i64 %159
  %161 = load i16, ptr %160, align 2, !tbaa !72
  %162 = zext i16 %161 to i32
  store i32 %162, ptr %14, align 4, !tbaa !8
  call void @llvm.lifetime.start.p0(i64 4, ptr %15) #3
  %163 = load ptr, ptr %4, align 8, !tbaa !131
  %164 = load i32, ptr %14, align 4, !tbaa !8
  %165 = sext i32 %164 to i64
  %166 = getelementptr inbounds i32, ptr %163, i64 %165
  %167 = load i32, ptr %166, align 4, !tbaa !8
  %168 = add nsw i32 %167, -1
  store i32 %168, ptr %166, align 4, !tbaa !8
  store i32 %168, ptr %15, align 4, !tbaa !8
  %169 = load i32, ptr %12, align 4, !tbaa !8
  %170 = getelementptr inbounds nuw %"class.cv::ximgproc::EdgeDrawingImpl", ptr %16, i32 0, i32 1
  %171 = load i32, ptr %170, align 8, !tbaa !213
  %172 = mul nsw i32 %169, %171
  %173 = load i32, ptr %13, align 4, !tbaa !8
  %174 = add nsw i32 %172, %173
  %175 = load ptr, ptr %11, align 8, !tbaa !131
  %176 = load i32, ptr %15, align 4, !tbaa !8
  %177 = sext i32 %176 to i64
  %178 = getelementptr inbounds i32, ptr %175, i64 %177
  store i32 %174, ptr %178, align 4, !tbaa !8
  call void @llvm.lifetime.end.p0(i64 4, ptr %15) #3
  call void @llvm.lifetime.end.p0(i64 4, ptr %14) #3
  br label %179

179:                                              ; preds = %150, %149
  %180 = load i32, ptr %13, align 4, !tbaa !8
  %181 = add nsw i32 %180, 1
  store i32 %181, ptr %13, align 4, !tbaa !8
  br label %128, !llvm.loop !298

182:                                              ; preds = %134
  br label %183

183:                                              ; preds = %182
  %184 = load i32, ptr %12, align 4, !tbaa !8
  %185 = add nsw i32 %184, 1
  store i32 %185, ptr %12, align 4, !tbaa !8
  br label %120, !llvm.loop !299

186:                                              ; preds = %126
  %187 = load ptr, ptr %4, align 8, !tbaa !131
  %188 = icmp eq ptr %187, null
  br i1 %188, label %190, label %189

189:                                              ; preds = %186
  call void @_ZdaPv(ptr noundef %187) #24
  br label %190

190:                                              ; preds = %189, %186
  %191 = load ptr, ptr %11, align 8, !tbaa !131
  store i32 1, ptr %6, align 4
  call void @llvm.lifetime.end.p0(i64 8, ptr %11) #3
  call void @llvm.lifetime.end.p0(i64 4, ptr %10) #3
  call void @llvm.lifetime.end.p0(i64 8, ptr %4) #3
  call void @llvm.lifetime.end.p0(i64 4, ptr %3) #3
  ret ptr %191
}