; Function Attrs: mustprogress uwtable
define hidden noalias noundef nonnull ptr @_ZN2cv8ximgproc15EdgeDrawingImpl23sortAnchorsByGradValue1Ev(ptr noundef nonnull readonly align 8 captures(none) dereferenceable(976) %0) local_unnamed_addr #3 align 2 {
  %2 = tail call noalias noundef nonnull dereferenceable(131072) ptr @_Znam(i64 noundef 131072) #40
  tail call void @llvm.memset.p0.i64(ptr noundef nonnull align 4 dereferenceable(131072) %2, i8 0, i64 131072, i1 false)
  %3 = getelementptr inbounds nuw i8, ptr %0, i64 76
  %4 = load i32, ptr %3, align 4, !tbaa !180
  %5 = add i32 %4, -1
  %6 = icmp sgt i32 %4, 2
  br i1 %6, label %.preheader45.lr.ph, label %.preheader44

.preheader45.lr.ph:                               ; preds = %1
  %7 = getelementptr inbounds nuw i8, ptr %0, i64 72
  %8 = load i32, ptr %7, align 8, !tbaa !182
  %9 = icmp sgt i32 %8, 2
  %10 = getelementptr inbounds nuw i8, ptr %0, i64 232
  %11 = load ptr, ptr %10, align 8
  %12 = getelementptr inbounds nuw i8, ptr %0, i64 728
  %13 = load ptr, ptr %12, align 8
  br i1 %9, label %.preheader45.us.preheader, label %.preheader44

.preheader45.us.preheader:                        ; preds = %.preheader45.lr.ph
  %14 = add nsw i32 %8, -1
  %15 = zext nneg i32 %8 to i64
  %wide.trip.count59 = zext nneg i32 %5 to i64
  %wide.trip.count = zext i32 %14 to i64
  br label %.preheader45.us

.preheader45.us:                                  ; preds = %.preheader45.us.preheader, %._crit_edge.us
  %indvars.iv56 = phi i64 [ 1, %.preheader45.us.preheader ], [ %indvars.iv.next57, %._crit_edge.us ]
  %16 = mul nuw nsw i64 %indvars.iv56, %15
  br label %17

17:                                               ; preds = %.preheader45.us, %28
  %indvars.iv = phi i64 [ 1, %.preheader45.us ], [ %indvars.iv.next, %28 ]
  %18 = add nuw nsw i64 %16, %indvars.iv
  %19 = getelementptr inbounds nuw i8, ptr %11, i64 %18
  %20 = load i8, ptr %19, align 1, !tbaa !53
  %.not43.us = icmp eq i8 %20, -2
  br i1 %.not43.us, label %21, label %28

21:                                               ; preds = %17
  %22 = getelementptr inbounds nuw i16, ptr %13, i64 %18
  %23 = load i16, ptr %22, align 2, !tbaa !63
  %24 = zext i16 %23 to i64
  %25 = getelementptr inbounds nuw i32, ptr %2, i64 %24
  %26 = load i32, ptr %25, align 4, !tbaa !15
  %27 = add nsw i32 %26, 1
  store i32 %27, ptr %25, align 4, !tbaa !15
  br label %28

28:                                               ; preds = %21, %17
  %indvars.iv.next = add nuw nsw i64 %indvars.iv, 1
  %exitcond.not = icmp eq i64 %indvars.iv.next, %wide.trip.count
  br i1 %exitcond.not, label %._crit_edge.us, label %17, !llvm.loop !284

._crit_edge.us:                                   ; preds = %28
  %indvars.iv.next57 = add nuw nsw i64 %indvars.iv56, 1
  %exitcond60.not = icmp eq i64 %indvars.iv.next57, %wide.trip.count59
  br i1 %exitcond60.not, label %.preheader44, label %.preheader45.us, !llvm.loop !285

.preheader44:                                     ; preds = %._crit_edge.us, %.preheader45.lr.ph, %1
  %load_initial = load i32, ptr %2, align 4
  br label %62

29:                                               ; preds = %62
  %30 = getelementptr inbounds nuw i8, ptr %2, i64 131068
  %31 = load i32, ptr %30, align 4, !tbaa !15
  %32 = sext i32 %31 to i64
  %33 = icmp slt i32 %31, 0
  %34 = shl nsw i64 %32, 2
  %35 = select i1 %33, i64 -1, i64 %34
  %36 = tail call noalias noundef nonnull ptr @_Znam(i64 noundef %35) #40
  br i1 %6, label %.preheader.lr.ph, label %._crit_edge51

.preheader.lr.ph:                                 ; preds = %29
  %37 = getelementptr inbounds nuw i8, ptr %0, i64 72
  %38 = load i32, ptr %37, align 8, !tbaa !182
  %39 = icmp sgt i32 %38, 2
  %40 = getelementptr inbounds nuw i8, ptr %0, i64 232
  %41 = load ptr, ptr %40, align 8
  %42 = getelementptr inbounds nuw i8, ptr %0, i64 728
  %43 = load ptr, ptr %42, align 8
  br i1 %39, label %.preheader.us.preheader, label %._crit_edge51

.preheader.us.preheader:                          ; preds = %.preheader.lr.ph
  %44 = add nsw i32 %38, -1
  %45 = zext nneg i32 %38 to i64
  %wide.trip.count73 = zext nneg i32 %5 to i64
  %wide.trip.count68 = zext i32 %44 to i64
  br label %.preheader.us

.preheader.us:                                    ; preds = %.preheader.us.preheader, %._crit_edge.us52
  %indvars.iv70 = phi i64 [ 1, %.preheader.us.preheader ], [ %indvars.iv.next71, %._crit_edge.us52 ]
  %46 = mul nuw nsw i64 %indvars.iv70, %45
  br label %47

47:                                               ; preds = %.preheader.us, %61
  %indvars.iv65 = phi i64 [ 1, %.preheader.us ], [ %indvars.iv.next66, %61 ]
  %48 = add nuw nsw i64 %46, %indvars.iv65
  %49 = getelementptr inbounds nuw i8, ptr %41, i64 %48
  %50 = load i8, ptr %49, align 1, !tbaa !53
  %.not.us = icmp eq i8 %50, -2
  br i1 %.not.us, label %51, label %61

51:                                               ; preds = %47
  %52 = getelementptr inbounds nuw i16, ptr %43, i64 %48
  %53 = load i16, ptr %52, align 2, !tbaa !63
  %54 = zext i16 %53 to i64
  %55 = getelementptr inbounds nuw i32, ptr %2, i64 %54
  %56 = load i32, ptr %55, align 4, !tbaa !15
  %57 = add nsw i32 %56, -1
  store i32 %57, ptr %55, align 4, !tbaa !15
  %58 = sext i32 %57 to i64
  %59 = getelementptr inbounds i32, ptr %36, i64 %58
  %60 = trunc nuw i64 %48 to i32
  store i32 %60, ptr %59, align 4, !tbaa !15
  br label %61

61:                                               ; preds = %51, %47
  %indvars.iv.next66 = add nuw nsw i64 %indvars.iv65, 1
  %exitcond69.not = icmp eq i64 %indvars.iv.next66, %wide.trip.count68
  br i1 %exitcond69.not, label %._crit_edge.us52, label %47, !llvm.loop !286

._crit_edge.us52:                                 ; preds = %61
  %indvars.iv.next71 = add nuw nsw i64 %indvars.iv70, 1
  %exitcond74.not = icmp eq i64 %indvars.iv.next71, %wide.trip.count73
  br i1 %exitcond74.not, label %._crit_edge51, label %.preheader.us, !llvm.loop !287

62:                                               ; preds = %.preheader44, %62
  %store_forwarded = phi i32 [ %load_initial, %.preheader44 ], [ %65, %62 ]
  %indvars.iv61 = phi i64 [ 1, %.preheader44 ], [ %indvars.iv.next62, %62 ]
  %63 = getelementptr i32, ptr %2, i64 %indvars.iv61
  %64 = load i32, ptr %63, align 4, !tbaa !15
  %65 = add nsw i32 %64, %store_forwarded
  store i32 %65, ptr %63, align 4, !tbaa !15
  %indvars.iv.next62 = add nuw nsw i64 %indvars.iv61, 1
  %exitcond64.not = icmp eq i64 %indvars.iv.next62, 32768
  br i1 %exitcond64.not, label %29, label %62, !llvm.loop !288

._crit_edge51:                                    ; preds = %._crit_edge.us52, %.preheader.lr.ph, %29
  tail call void @_ZdaPv(ptr noundef nonnull %2) #42
  ret ptr %36
}